target datalayout = "e-m:e-p270:32:32-p271:32:32-p272:64:64-i64:64-i128:128-f80:128-n8:16:32:64-S128"
target triple = "x86_64-pc-linux-gnu"

%"class.logging::CheckOpResult" = type { ptr }
%"class.logging::LogMessage" = type <{ i32, [4 x i8], %"class.std::__cxx11::basic_ostringstream", i64, ptr, i32, [4 x i8] }>
%"class.std::__cxx11::basic_ostringstream" = type { %"class.std::basic_ostream.base", %"class.std::__cxx11::basic_stringbuf", %"class.std::basic_ios" }
%"class.std::basic_ostream.base" = type { ptr }
%"class.std::__cxx11::basic_stringbuf" = type { %"class.std::basic_streambuf", i32, %"class.std::__cxx11::basic_string" }
%"class.std::basic_streambuf" = type { ptr, ptr, ptr, ptr, ptr, ptr, ptr, %"class.std::locale" }
%"class.std::locale" = type { ptr }
%"class.std::__cxx11::basic_string" = type { %"struct.std::__cxx11::basic_string<char>::_Alloc_hider", i64, %union.anon }
%"struct.std::__cxx11::basic_string<char>::_Alloc_hider" = type { ptr }
%union.anon = type { i64, [8 x i8] }
%"class.std::basic_ios" = type { %"class.std::ios_base", ptr, i8, i8, ptr, ptr, ptr, ptr }
%"class.std::ios_base" = type { ptr, i64, i64, i32, i32, i32, ptr, %"struct.std::ios_base::_Words", [8 x %"struct.std::ios_base::_Words"], i32, ptr, %"class.std::locale" }
%"struct.std::ios_base::_Words" = type { ptr, i64 }
%"class.base::Pickle" = type { ptr, ptr, i64, i64, i64 }
%"struct.base::Pickle::Header" = type { i32 }

@.str.4 = private unnamed_addr constant [109 x i8] c"generated/home/dtcxzyw/WorkSpace/Projects/compilers/llvm-opt-benchmark/bench/libquic/libquic/src/base/bits.h\00", align 1

; Function Attrs: mustprogress nounwind uwtable
define linkonce_odr noundef nonnull align 8 dereferenceable(8) ptr @_ZN7logging10LogMessage6streamEv(ptr noundef nonnull align 8 dereferenceable(404) %0) #2 comdat align 2 {
  %2 = alloca ptr, align 8
  store ptr %0, ptr %2, align 8, !tbaa !14
  %3 = load ptr, ptr %2, align 8
  %4 = getelementptr inbounds nuw %"class.logging::LogMessage", ptr %3, i32 0, i32 2
  ret ptr %4
}

; Function Attrs: mustprogress nounwind uwtable
define linkonce_odr noundef ptr @_ZN7logging13CheckOpResult7messageB5cxx11Ev(ptr noundef nonnull align 8 dereferenceable(8) %0) #2 comdat align 2 {
  %2 = alloca ptr, align 8
  store ptr %0, ptr %2, align 8, !tbaa !8
  %3 = load ptr, ptr %2, align 8
  %4 = getelementptr inbounds nuw %"class.logging::CheckOpResult", ptr %3, i32 0, i32 0
  %5 = load ptr, ptr %4, align 8, !tbaa !12
  ret ptr %5
}

; Function Attrs: mustprogress nounwind uwtable
define linkonce_odr noundef zeroext i1 @_ZNK7logging13CheckOpResultcvbEv(ptr noundef nonnull align 8 dereferenceable(8) %0) #2 comdat align 2 {
  %2 = alloca ptr, align 8
  store ptr %0, ptr %2, align 8, !tbaa !8
  %3 = load ptr, ptr %2, align 8
  %4 = getelementptr inbounds nuw %"class.logging::CheckOpResult", ptr %3, i32 0, i32 0
  %5 = load ptr, ptr %4, align 8, !tbaa !12
  %6 = icmp ne ptr %5, null
  %7 = xor i1 %6, true
  ret i1 %7
}

; Function Attrs: mustprogress nounwind uwtable
define linkonce_odr void @_ZN7logging13CheckOpResultC2EPNSt7__cxx1112basic_stringIcSt11char_traitsIcESaIcEEE(ptr noundef nonnull align 8 dereferenceable(8) %0, ptr noundef %1) unnamed_addr #2 comdat align 2 {
  %3 = alloca ptr, align 8
  %4 = alloca ptr, align 8
  store ptr %0, ptr %3, align 8, !tbaa !8
  store ptr %1, ptr %4, align 8, !tbaa !10
  %5 = load ptr, ptr %3, align 8
  %6 = getelementptr inbounds nuw %"class.logging::CheckOpResult", ptr %5, i32 0, i32 0
  %7 = load ptr, ptr %4, align 8, !tbaa !10
  store ptr %7, ptr %6, align 8, !tbaa !12
  ret void
}

; Function Attrs: inlinehint mustprogress uwtable
define linkonce_odr noundef i64 @_ZN4base4bits5AlignEmm(i64 noundef %0, i64 noundef %1) #5 comdat {
  %3 = alloca i64, align 8
  %4 = alloca i64, align 8
  %5 = alloca %"class.logging::CheckOpResult", align 8
  %6 = alloca %"class.logging::LogMessage", align 8
  store i64 %0, ptr %3, align 8, !tbaa !24
  store i64 %1, ptr %4, align 8, !tbaa !24
  call void @llvm.lifetime.start.p0(i64 8, ptr %5) #11
  call void @_ZN7logging13CheckOpResultC2EPNSt7__cxx1112basic_stringIcSt11char_traitsIcESaIcEEE(ptr noundef nonnull align 8 dereferenceable(8) %5, ptr noundef null)
  %7 = call noundef zeroext i1 @_ZNK7logging13CheckOpResultcvbEv(ptr noundef nonnull align 8 dereferenceable(8) %5)
  br i1 %7, label %8, label %9

8:                                                ; preds = %2
  br label %12

9:                                                ; preds = %2
  call void @llvm.lifetime.start.p0(i64 408, ptr %6) #11
  %10 = call noundef ptr @_ZN7logging13CheckOpResult7messageB5cxx11Ev(ptr noundef nonnull align 8 dereferenceable(8) %5)
  call void @_ZN7logging10LogMessageC1EPKciiPNSt7__cxx1112basic_stringIcSt11char_traitsIcESaIcEEE(ptr noundef nonnull align 8 dereferenceable(404) %6, ptr noundef @.str.4, i32 noundef 48, i32 noundef 0, ptr noundef %10)
  %11 = call noundef nonnull align 8 dereferenceable(8) ptr @_ZN7logging10LogMessage6streamEv(ptr noundef nonnull align 8 dereferenceable(404) %6)
  call void @_ZN7logging10LogMessageD1Ev(ptr noundef nonnull align 8 dereferenceable(404) %6) #11
  call void @llvm.lifetime.end.p0(i64 408, ptr %6) #11
  br label %12

12:                                               ; preds = %9, %8
  call void @llvm.lifetime.end.p0(i64 8, ptr %5) #11
  %13 = load i64, ptr %3, align 8, !tbaa !24
  %14 = load i64, ptr %4, align 8, !tbaa !24
  %15 = add i64 %13, %14
  %16 = sub i64 %15, 1
  %17 = load i64, ptr %4, align 8, !tbaa !24
  %18 = sub i64 %17, 1
  %19 = xor i64 %18, -1
  %20 = and i64 %16, %19
  ret i64 %20
}

; Function Attrs: mustprogress uwtable
define void @_ZN4base6PickleC2EPKci(ptr noundef nonnull align 8 dereferenceable(40) %0, ptr noundef %1, i32 noundef %2) unnamed_addr #0 align 2 {
  %4 = alloca ptr, align 8
  %5 = alloca ptr, align 8
  %6 = alloca i32, align 4
  store ptr %0, ptr %4, align 8, !tbaa !21
  store ptr %1, ptr %5, align 8, !tbaa !38
  store i32 %2, ptr %6, align 4, !tbaa !16
  %7 = load ptr, ptr %4, align 8
  store ptr getelementptr inbounds inrange(-16, 40) ({ [7 x ptr] }, ptr @_ZTVN4base6PickleE, i32 0, i32 0, i32 2), ptr %7, align 8, !tbaa !75
  %8 = getelementptr inbounds nuw %"class.base::Pickle", ptr %7, i32 0, i32 1
  %9 = load ptr, ptr %5, align 8, !tbaa !38
  store ptr %9, ptr %8, align 8, !tbaa !32
  %10 = getelementptr inbounds nuw %"class.base::Pickle", ptr %7, i32 0, i32 2
  store i64 0, ptr %10, align 8, !tbaa !35
  %11 = getelementptr inbounds nuw %"class.base::Pickle", ptr %7, i32 0, i32 3
  store i64 -1, ptr %11, align 8, !tbaa !79
  %12 = getelementptr inbounds nuw %"class.base::Pickle", ptr %7, i32 0, i32 4
  store i64 0, ptr %12, align 8, !tbaa !80
  %13 = load i32, ptr %6, align 4, !tbaa !16
  %14 = icmp sge i32 %13, 4
  br i1 %14, label %15, label %24

15:                                               ; preds = %3
  %16 = load i32, ptr %6, align 4, !tbaa !16
  %17 = getelementptr inbounds nuw %"class.base::Pickle", ptr %7, i32 0, i32 1
  %18 = load ptr, ptr %17, align 8, !tbaa !32
  %19 = getelementptr inbounds nuw %"struct.base::Pickle::Header", ptr %18, i32 0, i32 0
  %20 = load i32, ptr %19, align 4, !tbaa !36
  %21 = sub i32 %16, %20
  %22 = zext i32 %21 to i64
  %23 = getelementptr inbounds nuw %"class.base::Pickle", ptr %7, i32 0, i32 2
  store i64 %22, ptr %23, align 8, !tbaa !35
  br label %24

24:                                               ; preds = %15, %3
  %25 = getelementptr inbounds nuw %"class.base::Pickle", ptr %7, i32 0, i32 2
  %26 = load i64, ptr %25, align 8, !tbaa !35
  %27 = load i32, ptr %6, align 4, !tbaa !16
  %28 = zext i32 %27 to i64
  %29 = icmp ugt i64 %26, %28
  br i1 %29, label %30, label %32

30:                                               ; preds = %24
  %31 = getelementptr inbounds nuw %"class.base::Pickle", ptr %7, i32 0, i32 2
  store i64 0, ptr %31, align 8, !tbaa !35
  br label %32

32:                                               ; preds = %30, %24
  %33 = getelementptr inbounds nuw %"class.base::Pickle", ptr %7, i32 0, i32 2
  %34 = load i64, ptr %33, align 8, !tbaa !35
  %35 = getelementptr inbounds nuw %"class.base::Pickle", ptr %7, i32 0, i32 2
  %36 = load i64, ptr %35, align 8, !tbaa !35
  %37 = call noundef i64 @_ZN4base4bits5AlignEmm(i64 noundef %36, i64 noundef 4)
  %38 = icmp ne i64 %34, %37
  br i1 %38, label %39, label %41

39:                                               ; preds = %32
  %40 = getelementptr inbounds nuw %"class.base::Pickle", ptr %7, i32 0, i32 2
  store i64 0, ptr %40, align 8, !tbaa !35
  br label %41

41:                                               ; preds = %39, %32
  %42 = getelementptr inbounds nuw %"class.base::Pickle", ptr %7, i32 0, i32 2
  %43 = load i64, ptr %42, align 8, !tbaa !35
  %44 = icmp ne i64 %43, 0
  br i1 %44, label %47, label %45

45:                                               ; preds = %41
  %46 = getelementptr inbounds nuw %"class.base::Pickle", ptr %7, i32 0, i32 1
  store ptr null, ptr %46, align 8, !tbaa !32
  br label %47

47:                                               ; preds = %45, %41
  ret void
}