; Function Attrs: mustprogress nofree norecurse nosync nounwind willreturn memory(argmem: readwrite) uwtable
define void @_ZN4base6PickleC2EPKci(ptr noundef nonnull writeonly align 8 captures(none) dereferenceable(40) initializes((0, 40)) %0, ptr noundef %1, i32 noundef %2) unnamed_addr #3 align 2 {
  store ptr getelementptr inbounds nuw inrange(-16, 40) (i8, ptr @_ZTVN4base6PickleE, i64 16), ptr %0, align 8, !tbaa !44
  %4 = getelementptr inbounds nuw i8, ptr %0, i64 8
  store ptr %1, ptr %4, align 8, !tbaa !13
  %5 = getelementptr inbounds nuw i8, ptr %0, i64 16
  store i64 0, ptr %5, align 8, !tbaa !14
  %6 = getelementptr inbounds nuw i8, ptr %0, i64 24
  store i64 -1, ptr %6, align 8, !tbaa !12
  %7 = getelementptr inbounds nuw i8, ptr %0, i64 32
  store i64 0, ptr %7, align 8, !tbaa !8
  %8 = icmp sgt i32 %2, 3
  br i1 %8, label %9, label %.thread6

9:                                                ; preds = %3
  %10 = load i32, ptr %1, align 4, !tbaa !15
  %11 = sub i32 %2, %10
  %12 = zext i32 %11 to i64
  %13 = icmp ugt i32 %10, %2
  %spec.store.select = select i1 %13, i64 0, i64 %12
  store i64 %spec.store.select, ptr %5, align 8
  %spec.select = select i1 %13, i64 0, i64 %12
  br label %.thread6

.thread6:                                         ; preds = %9, %3
  %14 = phi i64 [ 0, %3 ], [ %spec.select, %9 ]
  %15 = add nuw nsw i64 %14, 3
  %16 = and i64 %15, -4
  %.not = icmp eq i64 %14, %16
  br i1 %.not, label %17, label %.thread

.thread:                                          ; preds = %.thread6
  store i64 0, ptr %5, align 8, !tbaa !14
  br label %18

17:                                               ; preds = %.thread6
  %.not4 = icmp eq i64 %14, 0
  br i1 %.not4, label %18, label %19

18:                                               ; preds = %.thread, %17
  store ptr null, ptr %4, align 8, !tbaa !13
  br label %19

19:                                               ; preds = %18, %17
  ret void
}